target datalayout = "e-m:e-p270:32:32-p271:32:32-p272:64:64-i64:64-i128:128-f80:128-n8:16:32:64-S128"
target triple = "x86_64-pc-linux-gnu"

%class.OopHandle = type { ptr }
%class.JvmtiThreadState = type { ptr, ptr, %class.OopHandle, ptr, i8, i8, i8, i8, i8, i32, i32, ptr, i32, ptr, i32, i32, %class.JvmtiThreadEventEnable, ptr, ptr, ptr, ptr, ptr, ptr, ptr, ptr, i8, i32, i32, %union.jvalue, ptr }
%class.JvmtiThreadEventEnable = type { %class.JvmtiEventEnabled }
%class.JvmtiEventEnabled = type { i64 }
%union.jvalue = type { i64 }
%class.JvmtiEnvThreadStateIterator = type { ptr }
%class.JavaThread = type { %class.Thread, i8, %class.OopHandle, %class.OopHandle, %class.OopHandle, %class.OopHandle, %class.JavaFrameAnchor, ptr, %struct.JNIEnv_, ptr, ptr, ptr, ptr, ptr, ptr, ptr, ptr, %class.MemRegion, ptr, i8, ptr, ptr, ptr, i32, i32, %"struct.SafepointMechanism::ThreadData", ptr, ptr, i32, i32, i8, i8, i8, i8, i8, i8, i8, i32, i8, i32, i8, i8, i64, %union.anon, ptr, ptr, i64, i64, ptr, ptr, %class.StackOverflow, ptr, ptr, ptr, i32, i32, ptr, i32, i32, i32, ptr, ptr, i32, i64, i64, %class.StackWatermarks, %class.HandshakeState, ptr, i32, ptr, i32, i32, ptr, %class.Parker, ptr, ptr, %class.LockStack }
%class.Thread = type { %class.ThreadShadow.base, i64, [43 x i64], ptr, ptr, i32, ptr, i64, i64, %class.ThreadLocalAllocBuffer, i64, %class.ThreadHeapSampler, %class.ThreadStatisticalInfo, %class.JfrThreadLocal, ptr, ptr, ptr, ptr, ptr, ptr, i64, i32, i32, ptr, i32, i32, i32, i32, i8, ptr }
%class.ThreadShadow.base = type <{ ptr, ptr, ptr, i32 }>
%class.ThreadLocalAllocBuffer = type <{ ptr, ptr, ptr, ptr, ptr, i64, i64, i64, i64, i32, i32, i32, i32, i64, %class.AdaptiveWeightedAverage, [4 x i8] }>
%class.AdaptiveWeightedAverage = type { float, i32, i32, i8, float }
%class.ThreadHeapSampler = type { i64 }
%class.ThreadStatisticalInfo = type { i64, i64 }
%class.JfrThreadLocal = type <{ ptr, ptr, ptr, ptr, ptr, ptr, ptr, ptr, ptr, ptr, %class.RefCountHandle, i64, i64, i64, i64, i64, i64, i64, i64, i64, i64, i64, i32, i32, i32, i16, i8, i8, i8, i8, i8, [5 x i8] }>
%class.RefCountHandle = type { ptr }
%class.JavaFrameAnchor = type { ptr, ptr, ptr }
%struct.JNIEnv_ = type { ptr }
%class.MemRegion = type { ptr, i64 }
%"struct.SafepointMechanism::ThreadData" = type { i64, i64 }
%union.anon = type { ptr }
%class.StackOverflow = type { i32, ptr, ptr, ptr, ptr, ptr, ptr }
%class.StackWatermarks = type { ptr }
%class.HandshakeState = type <{ ptr, %class.FilterQueue, %class.Monitor, ptr, i8, i8, i8, [5 x i8] }>
%class.FilterQueue = type { ptr }
%class.Monitor = type { %class.Mutex }
%class.Mutex = type { ptr, %class.PlatformMonitor, ptr }
%class.PlatformMonitor = type { %class.PlatformMutex, %union.pthread_cond_t }
%class.PlatformMutex = type { %union.pthread_mutex_t }
%union.pthread_mutex_t = type { %struct.__pthread_mutex_s }
%struct.__pthread_mutex_s = type { i32, i32, i32, i32, i32, i16, i16, %struct.__pthread_internal_list }
%struct.__pthread_internal_list = type { ptr, ptr }
%union.pthread_cond_t = type { %struct.__pthread_cond_s }
%struct.__pthread_cond_s = type { %union.__atomic_wide_counter, %union.__atomic_wide_counter, [2 x i32], [2 x i32], i32, i32, [2 x i32] }
%union.__atomic_wide_counter = type { i64 }
%class.Parker = type { %class.PlatformParker }
%class.PlatformParker = type { i32, i32, [1 x %union.pthread_mutex_t], [2 x %union.pthread_cond_t] }
%class.LockStack = type { i32, i64, [8 x ptr] }
%class.JvmtiEnvThreadState = type { ptr, ptr, ptr, ptr, i32, i8, i8, %class.JvmtiEnvThreadEventEnable, ptr, ptr }
%class.JvmtiEnvThreadEventEnable = type { %class.JvmtiEventEnabled, %class.JvmtiEventEnabled }
%"struct.Atomic::PlatformLoad" = type { i8 }
%"struct.Atomic::LoadImpl.41" = type { i8 }

@g_assert_poison = external global ptr, align 8
@.str = private unnamed_addr constant [45 x i8] c"src/hotspot/share/prims/jvmtiThreadState.cpp\00", align 1
@.str.8 = private unnamed_addr constant [63 x i8] c"guarantee(get_thread()->is_handshake_safe_for(current)) failed\00", align 1
@.str.9 = private unnamed_addr constant [43 x i8] c"must be current thread or direct handshake\00", align 1
@_ZN6Thread12_thr_currentE = external thread_local global ptr, align 8

; Function Attrs: mustprogress nounwind uwtable
define linkonce_odr hidden noundef ptr @_ZNK6Atomic12PlatformLoadILm8EEclIP6ThreadEET_PVKS5_(ptr noundef nonnull align 1 dereferenceable(1) %0, ptr noundef %1) #1 comdat align 2 {
  %3 = alloca ptr, align 8
  %4 = alloca ptr, align 8
  store ptr %0, ptr %3, align 8
  store ptr %1, ptr %4, align 8
  %5 = load ptr, ptr %4, align 8
  %6 = load volatile ptr, ptr %5, align 8
  ret ptr %6
}

; Function Attrs: mustprogress nounwind uwtable
define linkonce_odr hidden noundef ptr @_ZNK6Atomic8LoadImplIP6ThreadNS_12PlatformLoadILm8EEEvEclEPVKS2_(ptr noundef nonnull align 1 dereferenceable(1) %0, ptr noundef %1) #1 comdat align 2 {
  %3 = alloca ptr, align 8
  %4 = alloca ptr, align 8
  %5 = alloca %"struct.Atomic::PlatformLoad", align 1
  store ptr %0, ptr %3, align 8
  store ptr %1, ptr %4, align 8
  %6 = load ptr, ptr %4, align 8
  %7 = call noundef ptr @_ZNK6Atomic12PlatformLoadILm8EEclIP6ThreadEET_PVKS5_(ptr noundef nonnull align 1 dereferenceable(1) %5, ptr noundef %6)
  ret ptr %7
}

; Function Attrs: mustprogress nounwind uwtable
define linkonce_odr hidden noundef ptr @_ZN6Atomic4loadIP6ThreadEET_PVKS3_(ptr noundef %0) #1 comdat align 2 {
  %2 = alloca ptr, align 8
  %3 = alloca %"struct.Atomic::LoadImpl.41", align 1
  store ptr %0, ptr %2, align 8
  %4 = load ptr, ptr %2, align 8
  %5 = call noundef ptr @_ZNK6Atomic8LoadImplIP6ThreadNS_12PlatformLoadILm8EEEvEclEPVKS2_(ptr noundef nonnull align 1 dereferenceable(1) %3, ptr noundef %4)
  ret ptr %5
}

; Function Attrs: mustprogress nounwind uwtable
define linkonce_odr hidden noundef ptr @_ZNK14HandshakeState17active_handshakerEv(ptr noundef nonnull align 8 dereferenceable(131) %0) #1 comdat align 2 {
  %2 = alloca ptr, align 8
  store ptr %0, ptr %2, align 8
  %3 = load ptr, ptr %2, align 8
  %4 = getelementptr inbounds %class.HandshakeState, ptr %3, i32 0, i32 3
  %5 = call noundef ptr @_ZN6Atomic4loadIP6ThreadEET_PVKS3_(ptr noundef %4)
  ret ptr %5
}

; Function Attrs: mustprogress nounwind uwtable
define linkonce_odr hidden noundef ptr @_ZN6Thread15current_or_nullEv() #1 comdat align 2 {
  %1 = call align 8 ptr @llvm.threadlocal.address.p0(ptr align 8 @_ZN6Thread12_thr_currentE)
  %2 = load ptr, ptr %1, align 8
  ret ptr %2
}

; Function Attrs: mustprogress nounwind uwtable
define linkonce_odr hidden void @_ZN6Thread27leaving_jvmti_env_iterationEv(ptr noundef nonnull align 8 dereferenceable(888) %0) #1 comdat align 2 {
  %2 = alloca ptr, align 8
  store ptr %0, ptr %2, align 8
  %3 = load ptr, ptr %2, align 8
  %4 = getelementptr inbounds %class.Thread, ptr %3, i32 0, i32 22
  %5 = load volatile i32, ptr %4, align 4
  %6 = add nsw i32 %5, -1
  store volatile i32 %6, ptr %4, align 4
  ret void
}

; Function Attrs: mustprogress nounwind uwtable
define linkonce_odr hidden noundef ptr @_ZN19JvmtiEnvThreadState4nextEv(ptr noundef nonnull align 8 dereferenceable(72) %0) #1 comdat align 2 {
  %2 = alloca ptr, align 8
  store ptr %0, ptr %2, align 8
  %3 = load ptr, ptr %2, align 8
  %4 = getelementptr inbounds %class.JvmtiEnvThreadState, ptr %3, i32 0, i32 2
  %5 = load ptr, ptr %4, align 8
  ret ptr %5
}

; Function Attrs: mustprogress nounwind uwtable
define linkonce_odr hidden noundef ptr @_ZN16JvmtiThreadState21head_env_thread_stateEv(ptr noundef nonnull align 8 dereferenceable(184) %0) #1 comdat align 2 {
  %2 = alloca ptr, align 8
  store ptr %0, ptr %2, align 8
  %3 = load ptr, ptr %2, align 8
  %4 = getelementptr inbounds %class.JvmtiThreadState, ptr %3, i32 0, i32 17
  %5 = load ptr, ptr %4, align 8
  ret ptr %5
}

; Function Attrs: mustprogress nounwind uwtable
define linkonce_odr hidden void @_ZN6Thread28entering_jvmti_env_iterationEv(ptr noundef nonnull align 8 dereferenceable(888) %0) #1 comdat align 2 {
  %2 = alloca ptr, align 8
  store ptr %0, ptr %2, align 8
  %3 = load ptr, ptr %2, align 8
  %4 = getelementptr inbounds %class.Thread, ptr %3, i32 0, i32 22
  %5 = load volatile i32, ptr %4, align 4
  %6 = add nsw i32 %5, 1
  store volatile i32 %6, ptr %4, align 4
  ret void
}

; Function Attrs: mustprogress nounwind uwtable
define linkonce_odr hidden noundef zeroext i1 @_ZNK10JavaThread21is_handshake_safe_forEP6Thread(ptr noundef nonnull align 8 dereferenceable(1800) %0, ptr noundef %1) #1 comdat align 2 {
  %3 = alloca ptr, align 8
  %4 = alloca ptr, align 8
  store ptr %0, ptr %3, align 8
  store ptr %1, ptr %4, align 8
  %5 = load ptr, ptr %3, align 8
  %6 = getelementptr inbounds %class.JavaThread, ptr %5, i32 0, i32 66
  %7 = call noundef ptr @_ZNK14HandshakeState17active_handshakerEv(ptr noundef nonnull align 8 dereferenceable(131) %6)
  %8 = load ptr, ptr %4, align 8
  %9 = icmp eq ptr %7, %8
  br i1 %9, label %13, label %10

10:                                               ; preds = %2
  %11 = load ptr, ptr %4, align 8
  %12 = icmp eq ptr %5, %11
  br label %13

13:                                               ; preds = %10, %2
  %14 = phi i1 [ true, %2 ], [ %12, %10 ]
  ret i1 %14
}

; Function Attrs: mustprogress nounwind uwtable
define linkonce_odr hidden noundef ptr @_ZN16JvmtiThreadState10get_threadEv(ptr noundef nonnull align 8 dereferenceable(184) %0) #1 comdat align 2 {
  %2 = alloca ptr, align 8
  store ptr %0, ptr %2, align 8
  %3 = load ptr, ptr %2, align 8
  %4 = getelementptr inbounds %class.JvmtiThreadState, ptr %3, i32 0, i32 0
  %5 = load ptr, ptr %4, align 8
  ret ptr %5
}

; Function Attrs: mustprogress nounwind uwtable
define linkonce_odr hidden noundef ptr @_ZN6Thread7currentEv() #1 comdat align 2 {
  %1 = alloca ptr, align 8
  %2 = call noundef ptr @_ZN6Thread15current_or_nullEv()
  store ptr %2, ptr %1, align 8
  %3 = load ptr, ptr %1, align 8
  ret ptr %3
}

; Function Attrs: mustprogress nounwind uwtable
define linkonce_odr hidden noundef zeroext i1 @_ZN10JavaThread19is_interp_only_modeEv(ptr noundef nonnull align 8 dereferenceable(1800) %0) #1 comdat align 2 {
  %2 = alloca ptr, align 8
  store ptr %0, ptr %2, align 8
  %3 = load ptr, ptr %2, align 8
  %4 = getelementptr inbounds %class.JavaThread, ptr %3, i32 0, i32 70
  %5 = load i32, ptr %4, align 8
  %6 = icmp ne i32 %5, 0
  ret i1 %6
}

; Function Attrs: mustprogress nounwind uwtable
define hidden void @_ZN16JvmtiThreadState26invalidate_cur_stack_depthEv(ptr noundef nonnull align 8 dereferenceable(184) %0) #1 align 2 {
  %2 = alloca ptr, align 8
  store ptr %0, ptr %2, align 8
  %3 = load ptr, ptr %2, align 8
  %4 = getelementptr inbounds %class.JvmtiThreadState, ptr %3, i32 0, i32 14
  store i32 -99, ptr %4, align 8
  ret void
}

; Function Attrs: mustprogress nounwind uwtable
define linkonce_odr hidden void @_ZN27JvmtiEnvThreadStateIteratorD2Ev(ptr noundef nonnull align 8 dereferenceable(8) %0) unnamed_addr #1 comdat align 2 {
  %2 = alloca ptr, align 8
  store ptr %0, ptr %2, align 8
  %3 = call noundef ptr @_ZN6Thread7currentEv()
  call void @_ZN6Thread27leaving_jvmti_env_iterationEv(ptr noundef nonnull align 8 dereferenceable(888) %3)
  ret void
}

; Function Attrs: mustprogress nounwind uwtable
define linkonce_odr hidden noundef ptr @_ZN27JvmtiEnvThreadStateIterator4nextEP19JvmtiEnvThreadState(ptr noundef nonnull align 8 dereferenceable(8) %0, ptr noundef %1) #1 comdat align 2 {
  %3 = alloca ptr, align 8
  %4 = alloca ptr, align 8
  store ptr %0, ptr %3, align 8
  store ptr %1, ptr %4, align 8
  %5 = load ptr, ptr %4, align 8
  %6 = call noundef ptr @_ZN19JvmtiEnvThreadState4nextEv(ptr noundef nonnull align 8 dereferenceable(72) %5)
  ret ptr %6
}

; Function Attrs: mustprogress nounwind uwtable
define linkonce_odr hidden noundef ptr @_ZN27JvmtiEnvThreadStateIterator5firstEv(ptr noundef nonnull align 8 dereferenceable(8) %0) #1 comdat align 2 {
  %2 = alloca ptr, align 8
  store ptr %0, ptr %2, align 8
  %3 = load ptr, ptr %2, align 8
  %4 = getelementptr inbounds %class.JvmtiEnvThreadStateIterator, ptr %3, i32 0, i32 0
  %5 = load ptr, ptr %4, align 8
  %6 = call noundef ptr @_ZN16JvmtiThreadState21head_env_thread_stateEv(ptr noundef nonnull align 8 dereferenceable(184) %5)
  ret ptr %6
}

; Function Attrs: mustprogress nounwind uwtable
define linkonce_odr hidden void @_ZN27JvmtiEnvThreadStateIteratorC2EP16JvmtiThreadState(ptr noundef nonnull align 8 dereferenceable(8) %0, ptr noundef %1) unnamed_addr #1 comdat align 2 {
  %3 = alloca ptr, align 8
  %4 = alloca ptr, align 8
  store ptr %0, ptr %3, align 8
  store ptr %1, ptr %4, align 8
  %5 = load ptr, ptr %3, align 8
  %6 = load ptr, ptr %4, align 8
  %7 = getelementptr inbounds %class.JvmtiEnvThreadStateIterator, ptr %5, i32 0, i32 0
  store ptr %6, ptr %7, align 8
  %8 = call noundef ptr @_ZN6Thread7currentEv()
  call void @_ZN6Thread28entering_jvmti_env_iterationEv(ptr noundef nonnull align 8 dereferenceable(888) %8)
  ret void
}

; Function Attrs: mustprogress nounwind uwtable
define hidden noundef i32 @_ZN16JvmtiThreadState15cur_stack_depthEv(ptr noundef nonnull align 8 dereferenceable(184) %0) #1 align 2 {
  %2 = alloca ptr, align 8
  %3 = alloca ptr, align 8
  store ptr %0, ptr %2, align 8
  %4 = load ptr, ptr %2, align 8
  %5 = call noundef ptr @_ZN6Thread7currentEv()
  store ptr %5, ptr %3, align 8
  br label %6

6:                                                ; preds = %1
  %7 = call noundef ptr @_ZN16JvmtiThreadState10get_threadEv(ptr noundef nonnull align 8 dereferenceable(184) %4)
  %8 = load ptr, ptr %3, align 8
  %9 = call noundef zeroext i1 @_ZNK10JavaThread21is_handshake_safe_forEP6Thread(ptr noundef nonnull align 8 dereferenceable(1800) %7, ptr noundef %8)
  br i1 %9, label %12, label %10

10:                                               ; preds = %6
  %11 = load ptr, ptr @g_assert_poison, align 8
  store i8 88, ptr %11, align 1
  call void (ptr, i32, ptr, ptr, ...) @_Z15report_vm_errorPKciS0_S0_z(ptr noundef @.str, i32 noundef 854, ptr noundef @.str.8, ptr noundef @.str.9) #8
  unreachable

12:                                               ; preds = %6
  br label %13

13:                                               ; preds = %12
  %14 = call noundef zeroext i1 @_ZN16JvmtiThreadState19is_interp_only_modeEv(ptr noundef nonnull align 8 dereferenceable(184) %4)
  br i1 %14, label %15, label %19

15:                                               ; preds = %13
  %16 = getelementptr inbounds %class.JvmtiThreadState, ptr %4, i32 0, i32 14
  %17 = load i32, ptr %16, align 8
  %18 = icmp eq i32 %17, -99
  br i1 %18, label %19, label %22

19:                                               ; preds = %15, %13
  %20 = call noundef i32 @_ZN16JvmtiThreadState12count_framesEv(ptr noundef nonnull align 8 dereferenceable(184) %4)
  %21 = getelementptr inbounds %class.JvmtiThreadState, ptr %4, i32 0, i32 14
  store i32 %20, ptr %21, align 8
  br label %23

22:                                               ; preds = %15
  br label %23

23:                                               ; preds = %22, %19
  %24 = getelementptr inbounds %class.JvmtiThreadState, ptr %4, i32 0, i32 14
  %25 = load i32, ptr %24, align 8
  ret i32 %25
}

; Function Attrs: mustprogress nounwind uwtable
define linkonce_odr hidden noundef zeroext i1 @_ZN16JvmtiThreadState19is_interp_only_modeEv(ptr noundef nonnull align 8 dereferenceable(184) %0) #1 comdat align 2 {
  %2 = alloca ptr, align 8
  store ptr %0, ptr %2, align 8
  %3 = load ptr, ptr %2, align 8
  %4 = getelementptr inbounds %class.JvmtiThreadState, ptr %3, i32 0, i32 0
  %5 = load ptr, ptr %4, align 8
  %6 = icmp eq ptr %5, null
  br i1 %6, label %7, label %11

7:                                                ; preds = %1
  %8 = getelementptr inbounds %class.JvmtiThreadState, ptr %3, i32 0, i32 15
  %9 = load i32, ptr %8, align 4
  %10 = icmp ne i32 %9, 0
  br label %15

11:                                               ; preds = %1
  %12 = getelementptr inbounds %class.JvmtiThreadState, ptr %3, i32 0, i32 0
  %13 = load ptr, ptr %12, align 8
  %14 = call noundef zeroext i1 @_ZN10JavaThread19is_interp_only_modeEv(ptr noundef nonnull align 8 dereferenceable(1800) %13)
  br label %15

15:                                               ; preds = %11, %7
  %16 = phi i1 [ %10, %7 ], [ %14, %11 ]
  ret i1 %16
}

; Function Attrs: mustprogress nounwind uwtable
define hidden void @_ZN16JvmtiThreadState24update_for_pop_top_frameEv(ptr noundef nonnull align 8 dereferenceable(184) %0) #1 align 2 {
  %2 = alloca ptr, align 8
  %3 = alloca i32, align 4
  %4 = alloca %class.JvmtiEnvThreadStateIterator, align 8
  %5 = alloca ptr, align 8
  store ptr %0, ptr %2, align 8
  %6 = load ptr, ptr %2, align 8
  %7 = call noundef zeroext i1 @_ZN16JvmtiThreadState19is_interp_only_modeEv(ptr noundef nonnull align 8 dereferenceable(184) %6)
  br i1 %7, label %8, label %26

8:                                                ; preds = %1
  %9 = call noundef i32 @_ZN16JvmtiThreadState15cur_stack_depthEv(ptr noundef nonnull align 8 dereferenceable(184) %6)
  store i32 %9, ptr %3, align 4
  call void @_ZN27JvmtiEnvThreadStateIteratorC2EP16JvmtiThreadState(ptr noundef nonnull align 8 dereferenceable(8) %4, ptr noundef %6)
  %10 = call noundef ptr @_ZN27JvmtiEnvThreadStateIterator5firstEv(ptr noundef nonnull align 8 dereferenceable(8) %4)
  store ptr %10, ptr %5, align 8
  br label %11

11:                                               ; preds = %22, %8
  %12 = load ptr, ptr %5, align 8
  %13 = icmp ne ptr %12, null
  br i1 %13, label %14, label %25

14:                                               ; preds = %11
  %15 = load ptr, ptr %5, align 8
  %16 = load i32, ptr %3, align 4
  %17 = call noundef zeroext i1 @_ZN19JvmtiEnvThreadState12is_frame_popEi(ptr noundef nonnull align 8 dereferenceable(72) %15, i32 noundef %16)
  br i1 %17, label %18, label %21

18:                                               ; preds = %14
  %19 = load ptr, ptr %5, align 8
  %20 = load i32, ptr %3, align 4
  call void @_ZN19JvmtiEnvThreadState15clear_frame_popEi(ptr noundef nonnull align 8 dereferenceable(72) %19, i32 noundef %20)
  br label %21

21:                                               ; preds = %18, %14
  br label %22

22:                                               ; preds = %21
  %23 = load ptr, ptr %5, align 8
  %24 = call noundef ptr @_ZN27JvmtiEnvThreadStateIterator4nextEP19JvmtiEnvThreadState(ptr noundef nonnull align 8 dereferenceable(8) %4, ptr noundef %23)
  store ptr %24, ptr %5, align 8
  br label %11, !llvm.loop !22

25:                                               ; preds = %11
  call void @_ZN27JvmtiEnvThreadStateIteratorD2Ev(ptr noundef nonnull align 8 dereferenceable(8) %4) #7
  call void @_ZN16JvmtiThreadState26invalidate_cur_stack_depthEv(ptr noundef nonnull align 8 dereferenceable(184) %6)
  br label %27

26:                                               ; preds = %1
  br label %27

27:                                               ; preds = %26, %25
  ret void
}