; Function Attrs: mustprogress nounwind uwtable
define hidden void @_ZN16JvmtiThreadState24update_for_pop_top_frameEv(ptr nocapture noundef nonnull align 8 dereferenceable(184) %0) local_unnamed_addr #0 align 2 {
  %2 = load ptr, ptr %0, align 8
  %3 = icmp eq ptr %2, null
  %4 = getelementptr inbounds i8, ptr %0, i64 76
  %5 = getelementptr inbounds i8, ptr %2, i64 1544
  %.in.in.i = select i1 %3, ptr %4, ptr %5
  %.in.i = load i32, ptr %.in.in.i, align 4
  %.not6 = icmp eq i32 %.in.i, 0
  br i1 %.not6, label %36, label %6

6:                                                ; preds = %1
  %7 = tail call align 8 ptr @llvm.threadlocal.address.p0(ptr align 8 @_ZN6Thread12_thr_currentE)
  %8 = load ptr, ptr %7, align 8
  %9 = getelementptr inbounds i8, ptr %2, i64 1504
  %10 = load volatile ptr, ptr %9, align 8
  %11 = icmp eq ptr %10, %8
  %12 = icmp eq ptr %2, %8
  %13 = or i1 %12, %11
  br i1 %13, label %16, label %14

14:                                               ; preds = %6
  %15 = load ptr, ptr @g_assert_poison, align 8
  store i8 88, ptr %15, align 1
  tail call void (ptr, i32, ptr, ptr, ...) @_Z15report_vm_errorPKciS0_S0_z(ptr noundef nonnull @.str, i32 noundef 854, ptr noundef nonnull @.str.8, ptr noundef nonnull @.str.9) #14
  unreachable

16:                                               ; preds = %6
  %.in.i.i = load i32, ptr %5, align 4
  %.not4.i = icmp eq i32 %.in.i.i, 0
  %17 = getelementptr inbounds i8, ptr %0, i64 72
  %18 = load i32, ptr %17, align 8
  %19 = icmp eq i32 %18, -99
  %or.cond.i = select i1 %.not4.i, i1 true, i1 %19
  br i1 %or.cond.i, label %20, label %_ZN16JvmtiThreadState15cur_stack_depthEv.exit

20:                                               ; preds = %16
  %21 = tail call noundef i32 @_ZN16JvmtiThreadState12count_framesEv(ptr noundef nonnull align 8 dereferenceable(184) %0)
  store i32 %21, ptr %17, align 8
  %.pre = load ptr, ptr %7, align 8
  br label %_ZN16JvmtiThreadState15cur_stack_depthEv.exit

_ZN16JvmtiThreadState15cur_stack_depthEv.exit:    ; preds = %16, %20
  %22 = phi ptr [ %8, %16 ], [ %.pre, %20 ]
  %23 = phi i32 [ %18, %16 ], [ %21, %20 ]
  %24 = getelementptr inbounds i8, ptr %22, i64 844
  %25 = load volatile i32, ptr %24, align 4
  %26 = add nsw i32 %25, 1
  store volatile i32 %26, ptr %24, align 4
  %27 = getelementptr inbounds i8, ptr %0, i64 88
  %.07 = load ptr, ptr %27, align 8
  %.not8 = icmp eq ptr %.07, null
  br i1 %.not8, label %._crit_edge, label %.lr.ph

.lr.ph:                                           ; preds = %_ZN16JvmtiThreadState15cur_stack_depthEv.exit, %30
  %.09 = phi ptr [ %.0, %30 ], [ %.07, %_ZN16JvmtiThreadState15cur_stack_depthEv.exit ]
  %28 = tail call noundef zeroext i1 @_ZN19JvmtiEnvThreadState12is_frame_popEi(ptr noundef nonnull align 8 dereferenceable(72) %.09, i32 noundef %23) #13
  br i1 %28, label %29, label %30

29:                                               ; preds = %.lr.ph
  tail call void @_ZN19JvmtiEnvThreadState15clear_frame_popEi(ptr noundef nonnull align 8 dereferenceable(72) %.09, i32 noundef %23) #13
  br label %30

30:                                               ; preds = %.lr.ph, %29
  %31 = getelementptr inbounds i8, ptr %.09, i64 16
  %.0 = load ptr, ptr %31, align 8
  %.not = icmp eq ptr %.0, null
  br i1 %.not, label %._crit_edge.loopexit, label %.lr.ph, !llvm.loop !30

._crit_edge.loopexit:                             ; preds = %30
  %.pre10 = load ptr, ptr %7, align 8
  br label %._crit_edge

._crit_edge:                                      ; preds = %._crit_edge.loopexit, %_ZN16JvmtiThreadState15cur_stack_depthEv.exit
  %32 = phi ptr [ %.pre10, %._crit_edge.loopexit ], [ %22, %_ZN16JvmtiThreadState15cur_stack_depthEv.exit ]
  %33 = getelementptr inbounds i8, ptr %32, i64 844
  %34 = load volatile i32, ptr %33, align 4
  %35 = add nsw i32 %34, -1
  store volatile i32 %35, ptr %33, align 4
  store i32 -99, ptr %17, align 8
  br label %36

36:                                               ; preds = %1, %._crit_edge
  ret void
}